; ModuleID = 'source-C-CXX/14/2135.c'
source_filename = "source-C-CXX/14/2135.c"
target datalayout = "e-m:e-p270:32:32-p271:32:32-p272:64:64-i64:64-f80:128-n8:16:32:64-S128"
target triple = "x86_64-pc-linux-gnu"

@.str = private unnamed_addr constant [3 x i8] c"%d\00", align 1

; Function Attrs: nofree nounwind sspstrong uwtable
define dso_local void @main() local_unnamed_addr #0 {
  %1 = alloca i32, align 4
  %2 = alloca i32, align 4
  %3 = bitcast i32* %1 to i8*
  call void @llvm.lifetime.start.p0i8(i64 4, i8* nonnull %3) #3
  %4 = bitcast i32* %2 to i8*
  call void @llvm.lifetime.start.p0i8(i64 4, i8* nonnull %4) #3
  %5 = call i32 (i8*, ...) @__isoc99_scanf(i8* getelementptr inbounds ([3 x i8], [3 x i8]* @.str, i64 0, i64 0), i32* nonnull %1)
  %6 = load i32, i32* %1, align 4, !tbaa !5
  %7 = icmp sgt i32 %6, 0
  br i1 %7, label %8, label %36

8:                                                ; preds = %0, %27
  %9 = phi i32 [ %28, %27 ], [ %6, %0 ]
  %10 = phi i32 [ %30, %27 ], [ 0, %0 ]
  %11 = phi i32 [ %33, %27 ], [ 0, %0 ]
  %12 = phi i32 [ %34, %27 ], [ 0, %0 ]
  %13 = icmp sgt i32 %9, 0
  br i1 %13, label %14, label %27

14:                                               ; preds = %8, %14
  %15 = phi i32 [ %23, %14 ], [ %10, %8 ]
  %16 = phi i32 [ %22, %14 ], [ 0, %8 ]
  %17 = phi i32 [ %24, %14 ], [ 0, %8 ]
  %18 = call i32 (i8*, ...) @__isoc99_scanf(i8* getelementptr inbounds ([3 x i8], [3 x i8]* @.str, i64 0, i64 0), i32* nonnull %2)
  %19 = load i32, i32* %2, align 4, !tbaa !5
  %20 = icmp eq i32 %19, 0
  %21 = zext i1 %20 to i32
  %22 = add nuw nsw i32 %16, %21
  %23 = add nsw i32 %15, %21
  %24 = add nuw nsw i32 %17, 1
  %25 = load i32, i32* %1, align 4, !tbaa !5
  %26 = icmp slt i32 %24, %25
  br i1 %26, label %14, label %27, !llvm.loop !9

27:                                               ; preds = %14, %8
  %28 = phi i32 [ %9, %8 ], [ %25, %14 ]
  %29 = phi i32 [ 0, %8 ], [ %22, %14 ]
  %30 = phi i32 [ %10, %8 ], [ %23, %14 ]
  %31 = icmp ne i32 %29, 0
  %32 = zext i1 %31 to i32
  %33 = add nuw nsw i32 %11, %32
  %34 = add nuw nsw i32 %12, 1
  %35 = icmp slt i32 %34, %28
  br i1 %35, label %8, label %36, !llvm.loop !11

36:                                               ; preds = %27, %0
  %37 = phi i32 [ 0, %0 ], [ %33, %27 ]
  %38 = phi i32 [ 0, %0 ], [ %30, %27 ]
  %39 = sdiv i32 %38, 2
  %40 = sub nsw i32 %39, %37
  %41 = add nsw i32 %37, -2
  %42 = mul nsw i32 %40, %41
  %43 = call i32 (i8*, ...) @printf(i8* nonnull dereferenceable(1) getelementptr inbounds ([3 x i8], [3 x i8]* @.str, i64 0, i64 0), i32 %42)
  call void @llvm.lifetime.end.p0i8(i64 4, i8* nonnull %4) #3
  call void @llvm.lifetime.end.p0i8(i64 4, i8* nonnull %3) #3
  ret void
}

; Function Attrs: argmemonly mustprogress nofree nosync nounwind willreturn
declare void @llvm.lifetime.start.p0i8(i64 immarg, i8* nocapture) #1

; Function Attrs: nofree nounwind
declare noundef i32 @__isoc99_scanf(i8* nocapture noundef readonly, ...) local_unnamed_addr #2

; Function Attrs: nofree nounwind
declare noundef i32 @printf(i8* nocapture noundef readonly, ...) local_unnamed_addr #2

; Function Attrs: argmemonly mustprogress nofree nosync nounwind willreturn
declare void @llvm.lifetime.end.p0i8(i64 immarg, i8* nocapture) #1


!llvm.module.flags = !{!0, !1, !2, !3}
!llvm.ident = !{!4}

!0 = !{i32 1, !"wchar_size", i32 4}
!1 = !{i32 7, !"PIC Level", i32 2}
!2 = !{i32 7, !"PIE Level", i32 2}
!3 = !{i32 7, !"uwtable", i32 1}
!4 = !{!"clang version 13.0.0"}
!5 = !{!6, !6, i64 0}
!6 = !{!"int", !7, i64 0}
!7 = !{!"omnipotent char", !8, i64 0}
!8 = !{!"Simple C/C++ TBAA"}
!9 = distinct !{!9, !10}
!10 = !{!"llvm.loop.mustprogress"}
!11 = distinct !{!11, !10, !12}
!12 = !{!"llvm.loop.unswitch.partial.disable"}
